target datalayout = "e-m:e-p270:32:32-p271:32:32-p272:64:64-i64:64-i128:128-f80:128-n8:16:32:64-S128"
target triple = "x86_64-pc-linux-gnu"

; Function Attrs: nounwind uwtable
define internal void @get_token(ptr noundef %0, ptr noundef %1, i32 noundef %2) #0 {
  %4 = alloca ptr, align 8
  %5 = alloca ptr, align 8
  %6 = alloca i32, align 4
  %7 = alloca i32, align 4
  %8 = alloca i8, align 1
  store ptr %0, ptr %4, align 8, !tbaa !33
  store ptr %1, ptr %5, align 8, !tbaa !67
  store i32 %2, ptr %6, align 4, !tbaa !50
  call void @llvm.lifetime.start.p0(i64 4, ptr %7) #9
  store i32 0, ptr %7, align 4, !tbaa !50
  call void @llvm.lifetime.start.p0(i64 1, ptr %8) #9
  br label %9

9:                                                ; preds = %31, %3
  %10 = load ptr, ptr %4, align 8, !tbaa !33
  %11 = call i32 @avio_r8(ptr noundef %10)
  %12 = trunc i32 %11 to i8
  store i8 %12, ptr %8, align 1, !tbaa !53
  %13 = icmp ne i8 %12, 0
  br i1 %13, label %14, label %32

14:                                               ; preds = %9
  %15 = load i8, ptr %8, align 1, !tbaa !53
  %16 = sext i8 %15 to i32
  %17 = icmp eq i32 %16, 32
  br i1 %17, label %18, label %19

18:                                               ; preds = %14
  br label %32

19:                                               ; preds = %14
  %20 = load i32, ptr %7, align 4, !tbaa !50
  %21 = load i32, ptr %6, align 4, !tbaa !50
  %22 = sub nsw i32 %21, 1
  %23 = icmp slt i32 %20, %22
  br i1 %23, label %24, label %31

24:                                               ; preds = %19
  %25 = load i8, ptr %8, align 1, !tbaa !53
  %26 = load ptr, ptr %5, align 8, !tbaa !67
  %27 = load i32, ptr %7, align 4, !tbaa !50
  %28 = add nsw i32 %27, 1
  store i32 %28, ptr %7, align 4, !tbaa !50
  %29 = sext i32 %27 to i64
  %30 = getelementptr inbounds i8, ptr %26, i64 %29
  store i8 %25, ptr %30, align 1, !tbaa !53
  br label %31

31:                                               ; preds = %24, %19
  br label %9, !llvm.loop !68

32:                                               ; preds = %18, %9
  %33 = load i8, ptr %8, align 1, !tbaa !53
  %34 = icmp ne i8 %33, 0
  br i1 %34, label %38, label %35

35:                                               ; preds = %32
  %36 = load ptr, ptr %4, align 8, !tbaa !33
  %37 = call i32 @avio_r8(ptr noundef %36)
  br label %38

38:                                               ; preds = %35, %32
  %39 = load ptr, ptr %5, align 8, !tbaa !67
  %40 = load i32, ptr %7, align 4, !tbaa !50
  %41 = sext i32 %40 to i64
  %42 = getelementptr inbounds i8, ptr %39, i64 %41
  store i8 0, ptr %42, align 1, !tbaa !53
  call void @llvm.lifetime.end.p0(i64 1, ptr %8) #9
  call void @llvm.lifetime.end.p0(i64 4, ptr %7) #9
  ret void
}