; Function Attrs: nounwind uwtable
define internal fastcc void @get_token(ptr noundef %0, ptr noundef nonnull writeonly captures(none) %1) unnamed_addr #2 {
  %3 = tail call i32 @avio_r8(ptr noundef %0) #8
  %4 = trunc i32 %3 to i8
  %5 = icmp eq i8 %4, 0
  %sext.mask13 = and i32 %3, 255
  %6 = icmp eq i32 %sext.mask13, 32
  %or.cond14 = or i1 %5, %6
  br i1 %or.cond14, label %._crit_edge, label %.lr.ph

.lr.ph:                                           ; preds = %2, %13
  %7 = phi i8 [ %15, %13 ], [ %4, %2 ]
  %.015 = phi i32 [ %.1, %13 ], [ 0, %2 ]
  %8 = icmp slt i32 %.015, 19
  br i1 %8, label %9, label %13

9:                                                ; preds = %.lr.ph
  %10 = add nsw i32 %.015, 1
  %11 = sext i32 %.015 to i64
  %12 = getelementptr inbounds i8, ptr %1, i64 %11
  store i8 %7, ptr %12, align 1, !tbaa !42
  br label %13

13:                                               ; preds = %9, %.lr.ph
  %.1 = phi i32 [ %10, %9 ], [ %.015, %.lr.ph ]
  %14 = tail call i32 @avio_r8(ptr noundef %0) #8
  %15 = trunc i32 %14 to i8
  %16 = icmp eq i8 %15, 0
  %sext.mask = and i32 %14, 255
  %17 = icmp eq i32 %sext.mask, 32
  %or.cond = or i1 %16, %17
  br i1 %or.cond, label %._crit_edge.loopexit, label %.lr.ph, !llvm.loop !54

._crit_edge.loopexit:                             ; preds = %13
  %18 = sext i32 %.1 to i64
  br i1 %16, label %19, label %21

._crit_edge:                                      ; preds = %2
  br i1 %5, label %19, label %21

19:                                               ; preds = %._crit_edge.loopexit, %._crit_edge
  %.0.lcssa19 = phi i64 [ %18, %._crit_edge.loopexit ], [ 0, %._crit_edge ]
  %20 = tail call i32 @avio_r8(ptr noundef %0) #8
  br label %21

21:                                               ; preds = %._crit_edge.loopexit, %19, %._crit_edge
  %.0.lcssa18 = phi i64 [ %18, %._crit_edge.loopexit ], [ %.0.lcssa19, %19 ], [ 0, %._crit_edge ]
  %22 = getelementptr inbounds i8, ptr %1, i64 %.0.lcssa18
  store i8 0, ptr %22, align 1, !tbaa !42
  ret void
}